target datalayout = "e-m:e-p270:32:32-p271:32:32-p272:64:64-i64:64-i128:128-f80:128-n8:16:32:64-S128"
target triple = "x86_64-pc-linux-gnu"

%struct.ecx_key_st = type { ptr, ptr, i8, [57 x i8], ptr, i64, i32, %struct.CRYPTO_REF_COUNT }
%struct.CRYPTO_REF_COUNT = type { i32 }

@.str = private unnamed_addr constant [31 x i8] c"../openssl/crypto/ec/ecx_key.c\00", align 1
@__func__.ossl_ecx_compute_key = private unnamed_addr constant [21 x i8] c"ossl_ecx_compute_key\00", align 1

; Function Attrs: nounwind uwtable
define i32 @ossl_ecx_compute_key(ptr noundef %0, ptr noundef %1, i64 noundef %2, ptr noundef %3, ptr noundef %4, i64 noundef %5) #0 {
  %7 = alloca i32, align 4
  %8 = alloca ptr, align 8
  %9 = alloca ptr, align 8
  %10 = alloca i64, align 8
  %11 = alloca ptr, align 8
  %12 = alloca ptr, align 8
  %13 = alloca i64, align 8
  store ptr %0, ptr %8, align 8, !tbaa !12
  store ptr %1, ptr %9, align 8, !tbaa !12
  store i64 %2, ptr %10, align 8, !tbaa !26
  store ptr %3, ptr %11, align 8, !tbaa !10
  store ptr %4, ptr %12, align 8, !tbaa !27
  store i64 %5, ptr %13, align 8, !tbaa !26
  %14 = load ptr, ptr %9, align 8, !tbaa !12
  %15 = icmp eq ptr %14, null
  br i1 %15, label %24, label %16

16:                                               ; preds = %6
  %17 = load ptr, ptr %9, align 8, !tbaa !12
  %18 = getelementptr inbounds nuw %struct.ecx_key_st, ptr %17, i32 0, i32 4
  %19 = load ptr, ptr %18, align 8, !tbaa !23
  %20 = icmp eq ptr %19, null
  br i1 %20, label %24, label %21

21:                                               ; preds = %16
  %22 = load ptr, ptr %8, align 8, !tbaa !12
  %23 = icmp eq ptr %22, null
  br i1 %23, label %24, label %25

24:                                               ; preds = %21, %16, %6
  call void @ERR_new()
  call void @ERR_set_debug(ptr noundef @.str, i32 noundef 116, ptr noundef @__func__.ossl_ecx_compute_key)
  call void (i32, i32, ptr, ...) @ERR_set_error(i32 noundef 57, i32 noundef 128, ptr noundef null)
  store i32 0, ptr %7, align 4
  br label %83

25:                                               ; preds = %21
  %26 = load i64, ptr %10, align 8, !tbaa !26
  %27 = icmp eq i64 %26, 32
  br i1 %27, label %31, label %28

28:                                               ; preds = %25
  %29 = load i64, ptr %10, align 8, !tbaa !26
  %30 = icmp eq i64 %29, 56
  br label %31

31:                                               ; preds = %28, %25
  %32 = phi i1 [ true, %25 ], [ %30, %28 ]
  %33 = zext i1 %32 to i32
  %34 = icmp ne i32 %33, 0
  %35 = xor i1 %34, true
  %36 = xor i1 %35, true
  %37 = zext i1 %36 to i32
  %38 = sext i32 %37 to i64
  %39 = call i64 @llvm.expect.i64(i64 %38, i64 1)
  %40 = icmp ne i64 %39, 0
  br i1 %40, label %42, label %41

41:                                               ; preds = %31
  call void @ERR_new()
  call void @ERR_set_debug(ptr noundef @.str, i32 noundef 122, ptr noundef @__func__.ossl_ecx_compute_key)
  call void (i32, i32, ptr, ...) @ERR_set_error(i32 noundef 57, i32 noundef 105, ptr noundef null)
  store i32 0, ptr %7, align 4
  br label %83

42:                                               ; preds = %31
  %43 = load ptr, ptr %11, align 8, !tbaa !10
  %44 = icmp eq ptr %43, null
  br i1 %44, label %45, label %48

45:                                               ; preds = %42
  %46 = load i64, ptr %10, align 8, !tbaa !26
  %47 = load ptr, ptr %12, align 8, !tbaa !27
  store i64 %46, ptr %47, align 8, !tbaa !26
  store i32 1, ptr %7, align 4
  br label %83

48:                                               ; preds = %42
  %49 = load i64, ptr %13, align 8, !tbaa !26
  %50 = load i64, ptr %10, align 8, !tbaa !26
  %51 = icmp ult i64 %49, %50
  br i1 %51, label %52, label %53

52:                                               ; preds = %48
  call void @ERR_new()
  call void @ERR_set_debug(ptr noundef @.str, i32 noundef 131, ptr noundef @__func__.ossl_ecx_compute_key)
  call void (i32, i32, ptr, ...) @ERR_set_error(i32 noundef 57, i32 noundef 106, ptr noundef null)
  store i32 0, ptr %7, align 4
  br label %83

53:                                               ; preds = %48
  %54 = load i64, ptr %10, align 8, !tbaa !26
  %55 = icmp eq i64 %54, 32
  br i1 %55, label %56, label %68

56:                                               ; preds = %53
  %57 = load ptr, ptr %11, align 8, !tbaa !10
  %58 = load ptr, ptr %9, align 8, !tbaa !12
  %59 = getelementptr inbounds nuw %struct.ecx_key_st, ptr %58, i32 0, i32 4
  %60 = load ptr, ptr %59, align 8, !tbaa !23
  %61 = load ptr, ptr %8, align 8, !tbaa !12
  %62 = getelementptr inbounds nuw %struct.ecx_key_st, ptr %61, i32 0, i32 3
  %63 = getelementptr inbounds [57 x i8], ptr %62, i64 0, i64 0
  %64 = call i32 @ossl_x25519(ptr noundef %57, ptr noundef %60, ptr noundef %63)
  %65 = icmp eq i32 %64, 0
  br i1 %65, label %66, label %67

66:                                               ; preds = %56
  call void @ERR_new()
  call void @ERR_set_debug(ptr noundef @.str, i32 noundef 146, ptr noundef @__func__.ossl_ecx_compute_key)
  call void (i32, i32, ptr, ...) @ERR_set_error(i32 noundef 57, i32 noundef 164, ptr noundef null)
  store i32 0, ptr %7, align 4
  br label %83

67:                                               ; preds = %56
  br label %80

68:                                               ; preds = %53
  %69 = load ptr, ptr %11, align 8, !tbaa !10
  %70 = load ptr, ptr %9, align 8, !tbaa !12
  %71 = getelementptr inbounds nuw %struct.ecx_key_st, ptr %70, i32 0, i32 4
  %72 = load ptr, ptr %71, align 8, !tbaa !23
  %73 = load ptr, ptr %8, align 8, !tbaa !12
  %74 = getelementptr inbounds nuw %struct.ecx_key_st, ptr %73, i32 0, i32 3
  %75 = getelementptr inbounds [57 x i8], ptr %74, i64 0, i64 0
  %76 = call i32 @ossl_x448(ptr noundef %69, ptr noundef %72, ptr noundef %75)
  %77 = icmp eq i32 %76, 0
  br i1 %77, label %78, label %79

78:                                               ; preds = %68
  call void @ERR_new()
  call void @ERR_set_debug(ptr noundef @.str, i32 noundef 160, ptr noundef @__func__.ossl_ecx_compute_key)
  call void (i32, i32, ptr, ...) @ERR_set_error(i32 noundef 57, i32 noundef 164, ptr noundef null)
  store i32 0, ptr %7, align 4
  br label %83

79:                                               ; preds = %68
  br label %80

80:                                               ; preds = %79, %67
  %81 = load i64, ptr %10, align 8, !tbaa !26
  %82 = load ptr, ptr %12, align 8, !tbaa !27
  store i64 %81, ptr %82, align 8, !tbaa !26
  store i32 1, ptr %7, align 4
  br label %83

83:                                               ; preds = %80, %78, %66, %52, %45, %41, %24
  %84 = load i32, ptr %7, align 4
  ret i32 %84
}