; Function Attrs: nounwind uwtable
define range(i32 0, 2) i32 @ossl_ecx_compute_key(ptr noundef %0, ptr noundef readonly captures(address_is_null) %1, i64 noundef %2, ptr noundef %3, ptr noundef writeonly captures(none) %4, i64 noundef %5) local_unnamed_addr #0 {
  %7 = icmp eq ptr %1, null
  br i1 %7, label %13, label %8

8:                                                ; preds = %6
  %9 = getelementptr inbounds nuw i8, ptr %1, i64 80
  %10 = load ptr, ptr %9, align 8, !tbaa !17
  %11 = icmp eq ptr %10, null
  %12 = icmp eq ptr %0, null
  %or.cond = or i1 %12, %11
  br i1 %or.cond, label %13, label %14

13:                                               ; preds = %8, %6
  tail call void @ERR_new() #4
  tail call void @ERR_set_debug(ptr noundef nonnull @.str, i32 noundef 116, ptr noundef nonnull @__func__.ossl_ecx_compute_key) #4
  tail call void (i32, i32, ptr, ...) @ERR_set_error(i32 noundef 57, i32 noundef 128, ptr noundef null) #4
  br label %34

14:                                               ; preds = %8
  %15 = icmp eq i64 %2, 32
  switch i64 %2, label %16 [
    i64 56, label %17
    i64 32, label %17
  ]

16:                                               ; preds = %14
  tail call void @ERR_new() #4
  tail call void @ERR_set_debug(ptr noundef nonnull @.str, i32 noundef 122, ptr noundef nonnull @__func__.ossl_ecx_compute_key) #4
  tail call void (i32, i32, ptr, ...) @ERR_set_error(i32 noundef 57, i32 noundef 105, ptr noundef null) #4
  br label %34

17:                                               ; preds = %14, %14
  %18 = icmp eq ptr %3, null
  br i1 %18, label %19, label %20

19:                                               ; preds = %17
  store i64 %2, ptr %4, align 8, !tbaa !18
  br label %34

20:                                               ; preds = %17
  %21 = icmp ult i64 %5, %2
  br i1 %21, label %22, label %23

22:                                               ; preds = %20
  tail call void @ERR_new() #4
  tail call void @ERR_set_debug(ptr noundef nonnull @.str, i32 noundef 131, ptr noundef nonnull @__func__.ossl_ecx_compute_key) #4
  tail call void (i32, i32, ptr, ...) @ERR_set_error(i32 noundef 57, i32 noundef 106, ptr noundef null) #4
  br label %34

23:                                               ; preds = %20
  %24 = getelementptr inbounds nuw i8, ptr %0, i64 17
  br i1 %15, label %25, label %29

25:                                               ; preds = %23
  %26 = tail call i32 @ossl_x25519(ptr noundef nonnull %3, ptr noundef nonnull %10, ptr noundef nonnull %24) #4
  %27 = icmp eq i32 %26, 0
  br i1 %27, label %28, label %33

28:                                               ; preds = %25
  tail call void @ERR_new() #4
  tail call void @ERR_set_debug(ptr noundef nonnull @.str, i32 noundef 146, ptr noundef nonnull @__func__.ossl_ecx_compute_key) #4
  tail call void (i32, i32, ptr, ...) @ERR_set_error(i32 noundef 57, i32 noundef 164, ptr noundef null) #4
  br label %34

29:                                               ; preds = %23
  %30 = tail call i32 @ossl_x448(ptr noundef nonnull %3, ptr noundef nonnull %10, ptr noundef nonnull %24) #4
  %31 = icmp eq i32 %30, 0
  br i1 %31, label %32, label %33

32:                                               ; preds = %29
  tail call void @ERR_new() #4
  tail call void @ERR_set_debug(ptr noundef nonnull @.str, i32 noundef 160, ptr noundef nonnull @__func__.ossl_ecx_compute_key) #4
  tail call void (i32, i32, ptr, ...) @ERR_set_error(i32 noundef 57, i32 noundef 164, ptr noundef null) #4
  br label %34

33:                                               ; preds = %29, %25
  store i64 %2, ptr %4, align 8, !tbaa !18
  br label %34

34:                                               ; preds = %33, %32, %28, %22, %19, %16, %13
  %.0 = phi i32 [ 0, %13 ], [ 1, %19 ], [ 0, %22 ], [ 0, %28 ], [ 1, %33 ], [ 0, %32 ], [ 0, %16 ]
  ret i32 %.0
}